; Function Attrs: mustprogress nounwind uwtable
define dso_local noundef nonnull ptr @LLVMGetSections(ptr nocapture noundef readonly %0) local_unnamed_addr #0 {
  %2 = load ptr, ptr %0, align 8
  %3 = load ptr, ptr %2, align 8
  %4 = getelementptr inbounds i8, ptr %3, i64 352
  %5 = load ptr, ptr %4, align 8
  %6 = tail call { i64, ptr } %5(ptr noundef nonnull align 8 dereferenceable(48) %2) #17
  %7 = extractvalue { i64, ptr } %6, 0
  %8 = extractvalue { i64, ptr } %6, 1
  %9 = tail call noalias noundef nonnull dereferenceable(16) ptr @_Znwm(i64 noundef 16) #18
  store i64 %7, ptr %9, align 16
  %.sroa.2.0..sroa_idx = getelementptr inbounds i8, ptr %9, i64 8
  store ptr %8, ptr %.sroa.2.0..sroa_idx, align 8
  ret ptr %9
}